; Function Attrs: nounwind uwtable
define noalias noundef ptr @Dar_ManStart(ptr noundef %0, ptr noundef %1) local_unnamed_addr #0 {
  tail call void @Aig_ManCleanData(ptr noundef %0) #11
  %calloc = tail call dereferenceable_or_null(2824) ptr @calloc(i64 1, i64 2824)
  store ptr %1, ptr %calloc, align 8, !tbaa !3
  %3 = getelementptr inbounds nuw i8, ptr %calloc, i64 8
  store ptr %0, ptr %3, align 8, !tbaa !14
  %4 = tail call noalias dereferenceable_or_null(16) ptr @malloc(i64 noundef 16) #12
  %5 = getelementptr inbounds nuw i8, ptr %4, i64 4
  store i32 0, ptr %5, align 4, !tbaa !15
  store i32 1000, ptr %4, align 8, !tbaa !17
  %6 = tail call noalias dereferenceable_or_null(8000) ptr @malloc(i64 noundef 8000) #12
  %7 = getelementptr inbounds nuw i8, ptr %4, i64 8
  store ptr %6, ptr %7, align 8, !tbaa !18
  %8 = getelementptr inbounds nuw i8, ptr %calloc, i64 32
  store ptr %4, ptr %8, align 8, !tbaa !19
  %9 = load i32, ptr %1, align 4, !tbaa !20
  %10 = mul i32 %9, 24
  %11 = tail call ptr @Aig_MmFixedStart(i32 noundef %10, i32 noundef 1024) #11
  %12 = getelementptr inbounds nuw i8, ptr %calloc, i64 16
  store ptr %11, ptr %12, align 8, !tbaa !22
  %13 = tail call noalias dereferenceable_or_null(16) ptr @malloc(i64 noundef 16) #12
  %14 = getelementptr inbounds nuw i8, ptr %13, i64 4
  store i32 0, ptr %14, align 4, !tbaa !15
  store i32 8, ptr %13, align 8, !tbaa !17
  %15 = tail call noalias dereferenceable_or_null(64) ptr @malloc(i64 noundef 64) #12
  %16 = getelementptr inbounds nuw i8, ptr %13, i64 8
  store ptr %15, ptr %16, align 8, !tbaa !18
  %17 = getelementptr inbounds nuw i8, ptr %calloc, i64 40
  store ptr %13, ptr %17, align 8, !tbaa !23
  ret ptr %calloc
}